
test-binaries/sll/sll.elf:     file format elf32-littleriscv


Disassembly of section .text:

00010080 <_start-0x80>:
   10080:	00000013          	nop
   10084:	00000013          	nop
   10088:	00000013          	nop
   1008c:	00000013          	nop
   10090:	00000013          	nop
   10094:	00000013          	nop
   10098:	00000013          	nop
   1009c:	00000013          	nop
   100a0:	00000013          	nop
   100a4:	00000013          	nop
   100a8:	00000013          	nop
   100ac:	00000013          	nop
   100b0:	00000013          	nop
   100b4:	00000013          	nop
   100b8:	00000013          	nop
   100bc:	00000013          	nop
   100c0:	00000013          	nop
   100c4:	00000013          	nop
   100c8:	00000013          	nop
   100cc:	00000013          	nop
   100d0:	00000013          	nop
   100d4:	00000013          	nop
   100d8:	00000013          	nop
   100dc:	00000013          	nop
   100e0:	00000013          	nop
   100e4:	00000013          	nop
   100e8:	00000013          	nop
   100ec:	00000013          	nop
   100f0:	00000013          	nop
   100f4:	00000013          	nop
   100f8:	00000013          	nop
   100fc:	00000013          	nop

00010100 <_start>:
   10100:	00900293          	li	t0,9
   10104:	00200313          	li	t1,2
   10108:	02400613          	li	a2,36
   1010c:	006295b3          	sll	a1,t0,t1
   10110:	00000073          	ecall
	...
